; Function Attrs: mustprogress nounwind uwtable
define dso_local void @_ZN4node2fs10FileHandle9ReleaseFDERKN2v820FunctionCallbackInfoINS2_5ValueEEE(ptr nocapture noundef nonnull readonly align 8 dereferenceable(20) %args) #3 align 2 {
entry:
  %ref.tmp.i.i = alloca %struct.uv_buf_t, align 8
  %0 = load ptr, ptr %args, align 8
  %1 = load i64, ptr %0, align 8
  %sub.i.i.i.i = add i64 %1, -1
  %2 = inttoptr i64 %sub.i.i.i.i to ptr
  %3 = load i64, ptr %2, align 8
  %sub.i11.i.i = add i64 %3, 11
  %4 = inttoptr i64 %sub.i11.i.i to ptr
  %5 = load i16, ptr %4, align 2
  %conv.i.i.i = zext i16 %5 to i32
  %cmp.i.i.i = icmp eq i16 %5, 1040
  %sub.i.i.i = add nsw i32 %conv.i.i.i, -1057
  %cmp1.i.i.i = icmp ult i32 %sub.i.i.i, 1002
  %6 = select i1 %cmp.i.i.i, i1 true, i1 %cmp1.i.i.i
  br i1 %6, label %if.then.i.i, label %if.end.i.i

if.then.i.i:                                      ; preds = %entry
  %sub.i.i21.i = add i64 %1, 31
  %7 = inttoptr i64 %sub.i.i21.i to ptr
  %8 = load i64, ptr %7, align 8
  %9 = inttoptr i64 %8 to ptr
  br label %_ZN4node10BaseObject12FromJSObjectEN2v85LocalINS1_5ValueEEE.exit

if.end.i.i:                                       ; preds = %entry
  %call7.i.i = tail call noundef ptr @_ZN2v86Object38SlowGetAlignedPointerFromInternalFieldEi(ptr noundef nonnull align 1 dereferenceable(1) %0, i32 noundef 1) #30
  br label %_ZN4node10BaseObject12FromJSObjectEN2v85LocalINS1_5ValueEEE.exit

_ZN4node10BaseObject12FromJSObjectEN2v85LocalINS1_5ValueEEE.exit: ; preds = %if.then.i.i, %if.end.i.i
  %retval.i13.0.i = phi ptr [ %9, %if.then.i.i ], [ %call7.i.i, %if.end.i.i ]
  %cmp = icmp eq ptr %retval.i13.0.i, null
  br i1 %cmp, label %return, label %do.end

do.end:                                           ; preds = %_ZN4node10BaseObject12FromJSObjectEN2v85LocalINS1_5ValueEEE.exit
  %fd_.i.i = getelementptr inbounds i8, ptr %retval.i13.0.i, i64 120
  call void @llvm.lifetime.start.p0(i64 16, ptr nonnull %ref.tmp.i.i)
  %closing_.i.i = getelementptr inbounds i8, ptr %retval.i13.0.i, i64 124
  store i8 0, ptr %closing_.i.i, align 4
  %closed_.i.i = getelementptr inbounds i8, ptr %retval.i13.0.i, i64 125
  store i8 1, ptr %closed_.i.i, align 1
  store i32 -1, ptr %fd_.i.i, align 8
  %reading_.i.i = getelementptr inbounds i8, ptr %retval.i13.0.i, i64 126
  %10 = load i8, ptr %reading_.i.i, align 2
  %11 = and i8 %10, 1
  %tobool.not.i.i = icmp eq i8 %11, 0
  %persistent_handle_.i.i.i = getelementptr inbounds i8, ptr %retval.i13.0.i, i64 8
  %12 = load ptr, ptr %persistent_handle_.i.i.i, align 8
  %cmp.i.i.i2 = icmp eq ptr %12, null
  %or.cond.i.i = select i1 %tobool.not.i.i, i1 true, i1 %cmp.i.i.i2
  br i1 %or.cond.i.i, label %_ZN4node2fs10FileHandle7ReleaseEv.exit, label %if.then.i.i3

if.then.i.i3:                                     ; preds = %do.end
  %call3.i.i = tail call { ptr, i64 } @uv_buf_init(ptr noundef null, i32 noundef 0) #30
  %13 = extractvalue { ptr, i64 } %call3.i.i, 0
  store ptr %13, ptr %ref.tmp.i.i, align 8
  %14 = getelementptr inbounds i8, ptr %ref.tmp.i.i, i64 8
  %15 = extractvalue { ptr, i64 } %call3.i.i, 1
  store i64 %15, ptr %14, align 8
  %listener_.i.i.i = getelementptr inbounds i8, ptr %retval.i13.0.i, i64 64
  %16 = load ptr, ptr %listener_.i.i.i, align 8
  %vtable.i.i.i = load ptr, ptr %16, align 8
  %vfn.i.i.i = getelementptr inbounds i8, ptr %vtable.i.i.i, i64 24
  %17 = load ptr, ptr %vfn.i.i.i, align 8
  call void %17(ptr noundef nonnull align 8 dereferenceable(24) %16, i64 noundef -4095, ptr noundef nonnull align 8 dereferenceable(16) %ref.tmp.i.i) #30
  br label %_ZN4node2fs10FileHandle7ReleaseEv.exit

_ZN4node2fs10FileHandle7ReleaseEv.exit:           ; preds = %do.end, %if.then.i.i3
  call void @llvm.lifetime.end.p0(i64 16, ptr nonnull %ref.tmp.i.i)
  br label %return

return:                                           ; preds = %_ZN4node10BaseObject12FromJSObjectEN2v85LocalINS1_5ValueEEE.exit, %_ZN4node2fs10FileHandle7ReleaseEv.exit
  ret void
}